target datalayout = "e-m:e-p270:32:32-p271:32:32-p272:64:64-i64:64-i128:128-f80:128-n8:16:32:64-S128"
target triple = "x86_64-pc-linux-gnu"

%"struct.vcpkg::LineInfo" = type { i32, ptr }

@.str.9 = private unnamed_addr constant [124 x i8] c"generated/home/dtcxzyw/WorkSpace/Projects/compilers/llvm-opt-benchmark/bench/vcpkg/vcpkg-tool/src/vcpkg/commands.create.cpp\00", align 1

; Function Attrs: mustprogress uwtable
define dso_local void @_ZN5vcpkg23command_create_and_exitERKNS_17VcpkgCmdArgumentsERKNS_10VcpkgPathsE(ptr noundef nonnull align 8 dereferenceable(1840) %0, ptr noundef nonnull align 8 dereferenceable(440) %1) #0 {
  %3 = alloca ptr, align 8
  %4 = alloca ptr, align 8
  %5 = alloca %"struct.vcpkg::LineInfo", align 8
  store ptr %0, ptr %3, align 8, !tbaa !4
  store ptr %1, ptr %4, align 8, !tbaa !9
  call void @llvm.lifetime.start.p0(i64 16, ptr %5) #18
  %6 = getelementptr inbounds nuw %"struct.vcpkg::LineInfo", ptr %5, i32 0, i32 0
  store i32 76, ptr %6, align 8, !tbaa !18
  %7 = getelementptr inbounds nuw %"struct.vcpkg::LineInfo", ptr %5, i32 0, i32 1
  store ptr @.str.9, ptr %7, align 8, !tbaa !22
  %8 = load ptr, ptr %3, align 8, !tbaa !4
  %9 = load ptr, ptr %4, align 8, !tbaa !9
  %10 = call noundef i32 @_ZN5vcpkg14command_createERKNS_17VcpkgCmdArgumentsERKNS_10VcpkgPathsE(ptr noundef nonnull align 8 dereferenceable(1840) %8, ptr noundef nonnull align 8 dereferenceable(440) %9)
  call void @_ZN5vcpkg6Checks14exit_with_codeERKNS_8LineInfoEi(ptr noundef nonnull align 8 dereferenceable(16) %5, i32 noundef %10) #21
  unreachable
}