; Function Attrs: mustprogress noreturn uwtable
define dso_local void @_ZN5vcpkg23command_create_and_exitERKNS_17VcpkgCmdArgumentsERKNS_10VcpkgPathsE(ptr noundef nonnull align 8 dereferenceable(1840) %0, ptr noundef nonnull align 8 dereferenceable(440) %1) local_unnamed_addr #8 {
  %3 = alloca %"struct.vcpkg::LineInfo", align 8
  call void @llvm.lifetime.start.p0(i64 16, ptr nonnull %3) #21
  store i32 76, ptr %3, align 8, !tbaa !40
  %4 = getelementptr inbounds nuw i8, ptr %3, i64 8
  store ptr @.str.9, ptr %4, align 8, !tbaa !43
  %5 = tail call noundef i32 @_ZN5vcpkg14command_createERKNS_17VcpkgCmdArgumentsERKNS_10VcpkgPathsE(ptr noundef nonnull align 8 dereferenceable(1840) %0, ptr noundef nonnull align 8 dereferenceable(440) %1)
  call void @_ZN5vcpkg6Checks14exit_with_codeERKNS_8LineInfoEi(ptr noundef nonnull align 8 dereferenceable(16) %3, i32 noundef %5) #24
  unreachable
}